; Function Attrs: mustprogress uwtable
define void @_ZN6duckdb14UnpivotListFun11GetFunctionEv(ptr dead_on_unwind noalias writable sret(%"class.duckdb::ScalarFunction") align 8 %0) local_unnamed_addr #3 align 2 personality ptr @__gxx_personality_v0 {
  tail call void @_ZN6duckdb12ListValueFun11GetFunctionEv(ptr dead_on_unwind writable sret(%"class.duckdb::ScalarFunction") align 8 %0)
  %2 = getelementptr inbounds nuw i8, ptr %0, i64 8
  %3 = getelementptr inbounds nuw i8, ptr %0, i64 16
  %4 = load i64, ptr %3, align 8, !tbaa !140
  %5 = invoke noundef nonnull align 8 dereferenceable(32) ptr @_ZNSt7__cxx1112basic_stringIcSt11char_traitsIcESaIcEE10_M_replaceEmmPKcm(ptr noundef nonnull align 8 dereferenceable(32) %2, i64 noundef 0, i64 noundef %4, ptr noundef nonnull @.str.1, i64 noundef 12)
          to label %_ZNSt7__cxx1112basic_stringIcSt11char_traitsIcESaIcEEaSEPKc.exit unwind label %7

_ZNSt7__cxx1112basic_stringIcSt11char_traitsIcESaIcEEaSEPKc.exit: ; preds = %1
  %6 = getelementptr inbounds nuw i8, ptr %0, i64 208
  store ptr @_ZN6duckdbL13ListValueBindILb1EEENS_10unique_ptrINS_12FunctionDataESt14default_deleteIS2_ELb1EEERNS_13ClientContextERNS_14ScalarFunctionERNS_6vectorINS1_INS_10ExpressionES3_ISB_ELb1EEELb1EEE, ptr %6, align 8, !tbaa !383
  ret void

7:                                                ; preds = %1
  %8 = landingpad { ptr, i32 }
          cleanup
  tail call void @_ZN6duckdb14ScalarFunctionD2Ev(ptr noundef nonnull align 8 dereferenceable(296) %0) #27
  resume { ptr, i32 } %8
}